; Function Attrs: nounwind uwtable
define i32 @ff_slice_thread_execute_with_mainfunc(ptr noundef %0, ptr noundef %1, ptr noundef %2, ptr noundef %3, ptr noundef %4, i32 noundef %5) local_unnamed_addr #2 {
  %7 = getelementptr inbounds nuw i8, ptr %0, i64 40
  %8 = load ptr, ptr %7, align 8, !tbaa !4
  %9 = getelementptr inbounds nuw i8, ptr %8, i64 32
  %10 = load ptr, ptr %9, align 8, !tbaa !27
  %11 = getelementptr inbounds nuw i8, ptr %10, i64 16
  store ptr %1, ptr %11, align 8, !tbaa !34
  %12 = getelementptr inbounds nuw i8, ptr %10, i64 24
  store ptr %2, ptr %12, align 8, !tbaa !37
  %13 = getelementptr inbounds nuw i8, ptr %0, i64 664
  %14 = load i32, ptr %13, align 8, !tbaa !38
  %15 = and i32 %14, 2
  %.not.i = icmp eq i32 %15, 0
  br i1 %.not.i, label %20, label %16

16:                                               ; preds = %6
  %17 = getelementptr inbounds nuw i8, ptr %0, i64 656
  %18 = load i32, ptr %17, align 8, !tbaa !39
  %19 = icmp slt i32 %18, 2
  br i1 %19, label %20, label %22

20:                                               ; preds = %16, %6
  %21 = tail call i32 @avcodec_default_execute(ptr noundef nonnull %0, ptr noundef null, ptr noundef %3, ptr noundef %4, i32 noundef %5, i32 noundef 0) #4
  br label %thread_execute.exit

22:                                               ; preds = %16
  %23 = icmp slt i32 %5, 1
  br i1 %23, label %thread_execute.exit, label %24

24:                                               ; preds = %22
  %25 = getelementptr inbounds nuw i8, ptr %10, i64 48
  store i32 0, ptr %25, align 8, !tbaa !40
  %26 = getelementptr inbounds nuw i8, ptr %10, i64 32
  store ptr %3, ptr %26, align 8, !tbaa !41
  %27 = getelementptr inbounds nuw i8, ptr %10, i64 8
  store ptr null, ptr %27, align 8, !tbaa !42
  %28 = getelementptr inbounds nuw i8, ptr %10, i64 40
  store ptr %4, ptr %28, align 8, !tbaa !43
  %29 = load ptr, ptr %10, align 8, !tbaa !44
  %30 = icmp ne ptr %2, null
  %31 = zext i1 %30 to i32
  tail call void @avpriv_slicethread_execute(ptr noundef %29, i32 noundef %5, i32 noundef %31) #4
  br label %thread_execute.exit

thread_execute.exit:                              ; preds = %20, %22, %24
  %.0.i = phi i32 [ %21, %20 ], [ 0, %24 ], [ 0, %22 ]
  ret i32 %.0.i
}